; Function Attrs: mustprogress uwtable
define internal void @_ZN12_GLOBAL__N_115onTrackbarGammaEiPv(i32 %0, ptr readnone captures(none) %1) #6 personality ptr @__gxx_personality_v0 {
  %3 = alloca %"class.cv::Mat", align 8
  %4 = alloca %"class.cv::_InputArray", align 8
  %5 = load i32, ptr @_ZN12_GLOBAL__N_17g_gammaE, align 4, !tbaa !19
  %6 = sitofp i32 %5 to float
  %7 = fdiv float %6, 1.000000e+02
  call void @_ZN2cv3MatC1ERKS0_(ptr noundef nonnull align 8 dereferenceable(96) %3, ptr noundef nonnull align 8 dereferenceable(96) @_ZN12_GLOBAL__N_17g_imageE)
  invoke void @_ZN2cv19intensity_transform15gammaCorrectionENS_3MatERS1_f(ptr noundef nonnull %3, ptr noundef nonnull align 8 dereferenceable(96) @_ZN12_GLOBAL__N_110g_imgGammaE, float noundef %7)
          to label %8 unwind label %12

8:                                                ; preds = %2
  call void @_ZN2cv3MatD1Ev(ptr noundef nonnull align 8 dereferenceable(96) %3) #11
  call void @llvm.lifetime.start.p0(i64 24, ptr nonnull %4) #11
  %9 = getelementptr inbounds nuw i8, ptr %4, i64 16
  store i32 0, ptr %9, align 8, !tbaa !21
  %10 = getelementptr inbounds nuw i8, ptr %4, i64 20
  store i32 0, ptr %10, align 4, !tbaa !23
  store i32 16842752, ptr %4, align 8, !tbaa !24
  %11 = getelementptr inbounds nuw i8, ptr %4, i64 8
  store ptr @_ZN12_GLOBAL__N_110g_imgGammaE, ptr %11, align 8, !tbaa !26
  call void @_ZN2cv6imshowERKNSt7__cxx1112basic_stringIcSt11char_traitsIcESaIcEEERKNS_11_InputArrayE(ptr noundef nonnull align 8 dereferenceable(32) @_ZN12_GLOBAL__N_114g_gammaWinNameB5cxx11E, ptr noundef nonnull align 8 dereferenceable(24) %4)
  call void @llvm.lifetime.end.p0(i64 24, ptr nonnull %4) #11
  ret void

12:                                               ; preds = %2
  %13 = landingpad { ptr, i32 }
          cleanup
  call void @_ZN2cv3MatD1Ev(ptr noundef nonnull align 8 dereferenceable(96) %3) #11
  resume { ptr, i32 } %13
}